target datalayout = "e-m:e-p270:32:32-p271:32:32-p272:64:64-i64:64-i128:128-f80:128-n8:16:32:64-S128"
target triple = "x86_64-unknown-linux-gnu"

%struct.rcu_head = type { ptr, ptr }
%struct.AddressSpaceDispatch = type { ptr, %struct.PhysPageEntry, %struct.PhysPageMap }
%struct.PhysPageEntry = type { i32 }
%struct.PhysPageMap = type { %struct.rcu_head, i32, i32, i32, i32, ptr, ptr }
%struct.MemoryRegionSection = type { i128, ptr, ptr, i64, i64, i8, i8, i8 }
%struct.FlatView = type { %struct.rcu_head, i32, ptr, i32, i32, ptr, ptr }

; Function Attrs: nounwind sspstrong uwtable
define internal ptr @flatview_to_dispatch(ptr noundef %fv) #0 {
entry:
  %fv.addr = alloca ptr, align 8
  store ptr %fv, ptr %fv.addr, align 8
  %0 = load ptr, ptr %fv.addr, align 8
  %dispatch = getelementptr inbounds %struct.FlatView, ptr %0, i32 0, i32 5
  %1 = load ptr, ptr %dispatch, align 8
  ret ptr %1
}

; Function Attrs: nounwind sspstrong uwtable
define dso_local i64 @memory_region_section_get_iotlb(ptr noundef %cpu, ptr noundef %section) #0 {
entry:
  %cpu.addr = alloca ptr, align 8
  %section.addr = alloca ptr, align 8
  %d = alloca ptr, align 8
  store ptr %cpu, ptr %cpu.addr, align 8
  store ptr %section, ptr %section.addr, align 8
  %0 = load ptr, ptr %section.addr, align 8
  %fv = getelementptr inbounds %struct.MemoryRegionSection, ptr %0, i32 0, i32 2
  %1 = load ptr, ptr %fv, align 8
  %call = call ptr @flatview_to_dispatch(ptr noundef %1)
  store ptr %call, ptr %d, align 8
  %2 = load ptr, ptr %section.addr, align 8
  %3 = load ptr, ptr %d, align 8
  %map = getelementptr inbounds %struct.AddressSpaceDispatch, ptr %3, i32 0, i32 2
  %sections = getelementptr inbounds %struct.PhysPageMap, ptr %map, i32 0, i32 6
  %4 = load ptr, ptr %sections, align 8
  %sub.ptr.lhs.cast = ptrtoint ptr %2 to i64
  %sub.ptr.rhs.cast = ptrtoint ptr %4 to i64
  %sub.ptr.sub = sub i64 %sub.ptr.lhs.cast, %sub.ptr.rhs.cast
  %sub.ptr.div = sdiv exact i64 %sub.ptr.sub, 64
  ret i64 %sub.ptr.div
}