; Function Attrs: mustprogress nofree norecurse nosync nounwind sspstrong willreturn memory(read, inaccessiblemem: none) uwtable
define dso_local range(i64 -144115188075855872, 144115188075855872) i64 @memory_region_section_get_iotlb(ptr noundef readnone captures(none) %cpu, ptr noundef %section) local_unnamed_addr #6 {
entry:
  %fv = getelementptr inbounds nuw i8, ptr %section, i64 24
  %0 = load ptr, ptr %fv, align 8
  %1 = getelementptr i8, ptr %0, i64 40
  %.val = load ptr, ptr %1, align 8
  %sections = getelementptr inbounds nuw i8, ptr %.val, i64 56
  %2 = load ptr, ptr %sections, align 8
  %sub.ptr.lhs.cast = ptrtoint ptr %section to i64
  %sub.ptr.rhs.cast = ptrtoint ptr %2 to i64
  %sub.ptr.sub = sub i64 %sub.ptr.lhs.cast, %sub.ptr.rhs.cast
  %sub.ptr.div = ashr exact i64 %sub.ptr.sub, 6
  ret i64 %sub.ptr.div
}